target datalayout = "e-m:e-p270:32:32-p271:32:32-p272:64:64-i64:64-i128:128-f80:128-n8:16:32:64-S128"
target triple = "x86_64-pc-linux-gnu"

%struct.zip_requests = type { [10 x ptr], [10 x i64], i32, i32, i32, i32 }

@.str = private unnamed_addr constant [4 x i8] c"xl/\00", align 1
@.str.1 = private unnamed_addr constant [5 x i8] c"ppt/\00", align 1
@.str.2 = private unnamed_addr constant [6 x i8] c"word/\00", align 1
@.str.3 = private unnamed_addr constant [21 x i8] c"Contents/content.hpf\00", align 1

; Function Attrs: nounwind uwtable
define i32 @cli_ooxml_filetype(ptr noundef %0, ptr noundef %1) #0 {
  %3 = alloca i32, align 4
  %4 = alloca ptr, align 8
  %5 = alloca ptr, align 8
  %6 = alloca %struct.zip_requests, align 8
  %7 = alloca i32, align 4
  store ptr %0, ptr %4, align 8
  store ptr %1, ptr %5, align 8
  call void @llvm.memset.p0.i64(ptr align 8 %6, i8 0, i64 176, i1 false)
  %8 = call i32 @unzip_search_add(ptr noundef %6, ptr noundef @.str, i64 noundef 3)
  store i32 %8, ptr %7, align 4
  %9 = icmp ne i32 %8, 0
  br i1 %9, label %10, label %11

10:                                               ; preds = %2
  store i32 0, ptr %3, align 4
  br label %37

11:                                               ; preds = %2
  %12 = call i32 @unzip_search_add(ptr noundef %6, ptr noundef @.str.1, i64 noundef 4)
  store i32 %12, ptr %7, align 4
  %13 = icmp ne i32 %12, 0
  br i1 %13, label %14, label %15

14:                                               ; preds = %11
  store i32 0, ptr %3, align 4
  br label %37

15:                                               ; preds = %11
  %16 = call i32 @unzip_search_add(ptr noundef %6, ptr noundef @.str.2, i64 noundef 5)
  store i32 %16, ptr %7, align 4
  %17 = icmp ne i32 %16, 0
  br i1 %17, label %18, label %19

18:                                               ; preds = %15
  store i32 0, ptr %3, align 4
  br label %37

19:                                               ; preds = %15
  %20 = call i32 @unzip_search_add(ptr noundef %6, ptr noundef @.str.3, i64 noundef 22)
  store i32 %20, ptr %7, align 4
  %21 = icmp ne i32 %20, 0
  br i1 %21, label %22, label %23

22:                                               ; preds = %19
  store i32 0, ptr %3, align 4
  br label %37

23:                                               ; preds = %19
  %24 = load ptr, ptr %4, align 8
  %25 = load ptr, ptr %5, align 8
  %26 = call i32 @unzip_search(ptr noundef %24, ptr noundef %25, ptr noundef %6)
  store i32 %26, ptr %7, align 4
  %27 = icmp eq i32 %26, 1
  br i1 %27, label %28, label %36

28:                                               ; preds = %23
  %29 = getelementptr inbounds %struct.zip_requests, ptr %6, i32 0, i32 4
  %30 = load i32, ptr %29, align 8
  switch i32 %30, label %35 [
    i32 0, label %31
    i32 1, label %32
    i32 2, label %33
    i32 3, label %34
  ]

31:                                               ; preds = %28
  store i32 548, ptr %3, align 4
  br label %37

32:                                               ; preds = %28
  store i32 547, ptr %3, align 4
  br label %37

33:                                               ; preds = %28
  store i32 546, ptr %3, align 4
  br label %37

34:                                               ; preds = %28
  store i32 551, ptr %3, align 4
  br label %37

35:                                               ; preds = %28
  store i32 0, ptr %3, align 4
  br label %37

36:                                               ; preds = %23
  store i32 0, ptr %3, align 4
  br label %37

37:                                               ; preds = %36, %35, %34, %33, %32, %31, %22, %18, %14, %10
  %38 = load i32, ptr %3, align 4
  ret i32 %38
}